target datalayout = "e-m:e-p270:32:32-p271:32:32-p272:64:64-i64:64-i128:128-f80:128-n8:16:32:64-S128"
target triple = "x86_64-pc-linux-gnu"

%struct._zend_executor_globals = type { %struct._zval_struct, %struct._zval_struct, [32 x ptr], ptr, ptr, %struct._zend_array, %struct._zend_array, ptr, i32, i8, %struct._zval_struct, i32, ptr, ptr, ptr, ptr, ptr, ptr, i64, ptr, ptr, i32, ptr, i32, i64, i32, i32, i32, i8, i8, %struct.zend_atomic_bool_s, %struct.zend_atomic_bool_s, ptr, i64, ptr, ptr, %struct._zend_array, %struct._zend_array, i32, i8, %struct._zval_struct, %struct._zval_struct, %struct._zend_stack, %struct._zend_stack, %struct._zend_stack, ptr, i32, i32, i64, ptr, ptr, ptr, %struct._zend_objects_store, %struct._zend_lazy_objects_store, ptr, ptr, ptr, [3 x %struct._zend_op], ptr, i8, i8, i64, i32, i32, ptr, [16 x %struct._HashTableIterator], ptr, %union._zend_function, %struct._zend_op, %struct._zend_array, i64, %struct.zend_get_gc_buffer, ptr, ptr, ptr, i64, i8, i32, ptr, ptr, i64, %struct._zend_call_stack, i64, i64, %struct._zend_strtod_state, [6 x ptr] }
%struct.zend_atomic_bool_s = type { i8 }
%struct._zval_struct = type { %union._zend_value, %union.anon, %union.anon.2 }
%union._zend_value = type { i64 }
%union.anon = type { i32 }
%union.anon.2 = type { i32 }
%struct._zend_stack = type { i32, i32, i32, ptr }
%struct._zend_objects_store = type { ptr, i32, i32, i32 }
%struct._zend_lazy_objects_store = type { %struct._zend_array }
%struct._HashTableIterator = type { ptr, i32, i32 }
%union._zend_function = type { %struct._zend_op_array }
%struct._zend_op_array = type { i8, [3 x i8], i32, ptr, ptr, ptr, i32, i32, ptr, ptr, ptr, ptr, i32, ptr, i32, i32, i32, ptr, ptr, ptr, ptr, ptr, i32, i32, ptr, ptr, ptr, i32, i32, i32, i32, ptr, ptr, [6 x ptr] }
%struct._zend_op = type { ptr, %union._znode_op, %union._znode_op, %union._znode_op, i32, i32, i8, i8, i8, i8 }
%union._znode_op = type { i32 }
%struct._zend_array = type { %struct._zend_refcounted_h, %union.anon.4, i32, %union.anon.6, i32, i32, i32, i32, i64, ptr }
%struct._zend_refcounted_h = type { i32, %union.anon.3 }
%union.anon.3 = type { i32 }
%union.anon.4 = type { i32 }
%union.anon.6 = type { ptr }
%struct.zend_get_gc_buffer = type { ptr, ptr, ptr }
%struct._zend_call_stack = type { ptr, i64 }
%struct._zend_strtod_state = type { [8 x ptr], ptr, ptr }
%struct._zend_fiber_context = type { ptr, ptr, ptr, ptr, ptr, i32, ptr, [6 x ptr] }
%struct._zend_fiber_transfer = type { ptr, %struct._zval_struct, i8 }
%struct._zend_fiber = type { %struct._zend_object, i8, %struct._zend_fiber_context, ptr, ptr, %struct._zend_fcall_info, %struct._zend_fcall_info_cache, ptr, ptr, ptr, %struct._zval_struct }
%struct._zend_object = type { %struct._zend_refcounted_h, i32, i32, ptr, ptr, ptr, [1 x %struct._zval_struct] }
%struct._zend_fcall_info = type { i64, %struct._zval_struct, ptr, ptr, ptr, i32, ptr }
%struct._zend_fcall_info_cache = type { ptr, ptr, ptr, ptr, ptr }
%struct._zend_execute_data = type { ptr, ptr, ptr, ptr, %struct._zval_struct, ptr, ptr, ptr, ptr }
%struct._zend_refcounted = type { %struct._zend_refcounted_h }

@executor_globals = external global %struct._zend_executor_globals, align 8
@.str.25 = private unnamed_addr constant [99 x i8] c"/home/dtcxzyw/WorkSpace/Projects/compilers/llvm-opt-benchmark/bench/php/php-src/Zend/zend_fibers.c\00", align 1

; Function Attrs: alwaysinline nounwind uwtable
define internal i32 @zend_gc_addref(ptr noundef %0) #6 {
  %2 = alloca ptr, align 8
  store ptr %0, ptr %2, align 8, !tbaa !160
  br label %3

3:                                                ; preds = %1
  br label %4

4:                                                ; preds = %3
  %5 = load ptr, ptr %2, align 8, !tbaa !160
  %6 = getelementptr inbounds nuw %struct._zend_refcounted_h, ptr %5, i32 0, i32 0
  %7 = load i32, ptr %6, align 4, !tbaa !162
  %8 = add i32 %7, 1
  store i32 %8, ptr %6, align 4, !tbaa !162
  ret i32 %8
}

; Function Attrs: alwaysinline nounwind uwtable
define internal void @zend_fiber_switch_to(ptr dead_on_unwind noalias writable sret(%struct._zend_fiber_transfer) align 8 %0, ptr noundef %1, ptr noundef %2, i1 noundef zeroext %3) #6 {
  %5 = alloca ptr, align 8
  %6 = alloca ptr, align 8
  %7 = alloca i8, align 1
  %8 = alloca ptr, align 8
  %9 = alloca ptr, align 8
  %10 = alloca ptr, align 8
  %11 = alloca i32, align 4
  store ptr %1, ptr %5, align 8, !tbaa !49
  store ptr %2, ptr %6, align 8, !tbaa !94
  %12 = zext i1 %3 to i8
  store i8 %12, ptr %7, align 1, !tbaa !124
  %13 = getelementptr inbounds nuw %struct._zend_fiber_transfer, ptr %0, i32 0, i32 0
  %14 = load ptr, ptr %5, align 8, !tbaa !49
  store ptr %14, ptr %13, align 8, !tbaa !62
  %15 = getelementptr inbounds nuw %struct._zend_fiber_transfer, ptr %0, i32 0, i32 1
  call void @llvm.memset.p0.i64(ptr align 8 %15, i8 0, i64 16, i1 false)
  %16 = getelementptr inbounds nuw %struct._zend_fiber_transfer, ptr %0, i32 0, i32 2
  %17 = load i8, ptr %7, align 1, !tbaa !124, !range !125, !noundef !126
  %18 = trunc i8 %17 to i1
  %19 = select i1 %18, i32 1, i32 0
  %20 = trunc i32 %19 to i8
  store i8 %20, ptr %16, align 8, !tbaa !105
  %21 = getelementptr i8, ptr %0, i64 25
  call void @llvm.memset.p0.i64(ptr align 1 %21, i8 0, i64 7, i1 false)
  %22 = load ptr, ptr %6, align 8, !tbaa !94
  %23 = icmp ne ptr %22, null
  br i1 %23, label %24, label %52

24:                                               ; preds = %4
  br label %25

25:                                               ; preds = %24
  call void @llvm.lifetime.start.p0(i64 8, ptr %8) #18
  %26 = getelementptr inbounds nuw %struct._zend_fiber_transfer, ptr %0, i32 0, i32 1
  store ptr %26, ptr %8, align 8, !tbaa !94
  call void @llvm.lifetime.start.p0(i64 8, ptr %9) #18
  %27 = load ptr, ptr %6, align 8, !tbaa !94
  store ptr %27, ptr %9, align 8, !tbaa !94
  call void @llvm.lifetime.start.p0(i64 8, ptr %10) #18
  %28 = load ptr, ptr %9, align 8, !tbaa !94
  %29 = getelementptr inbounds nuw %struct._zval_struct, ptr %28, i32 0, i32 0
  %30 = load ptr, ptr %29, align 8, !tbaa !61
  store ptr %30, ptr %10, align 8, !tbaa !128
  call void @llvm.lifetime.start.p0(i64 4, ptr %11) #18
  %31 = load ptr, ptr %9, align 8, !tbaa !94
  %32 = getelementptr inbounds nuw %struct._zval_struct, ptr %31, i32 0, i32 1
  %33 = load i32, ptr %32, align 8, !tbaa !61
  store i32 %33, ptr %11, align 4, !tbaa !48
  br label %34

34:                                               ; preds = %25
  %35 = load ptr, ptr %10, align 8, !tbaa !128
  %36 = load ptr, ptr %8, align 8, !tbaa !94
  %37 = getelementptr inbounds nuw %struct._zval_struct, ptr %36, i32 0, i32 0
  store ptr %35, ptr %37, align 8, !tbaa !61
  %38 = load i32, ptr %11, align 4, !tbaa !48
  %39 = load ptr, ptr %8, align 8, !tbaa !94
  %40 = getelementptr inbounds nuw %struct._zval_struct, ptr %39, i32 0, i32 1
  store i32 %38, ptr %40, align 8, !tbaa !61
  br label %41

41:                                               ; preds = %34
  br label %42

42:                                               ; preds = %41
  %43 = load i32, ptr %11, align 4, !tbaa !48
  %44 = and i32 %43, 65280
  %45 = icmp ne i32 %44, 0
  br i1 %45, label %46, label %50

46:                                               ; preds = %42
  %47 = load ptr, ptr %10, align 8, !tbaa !128
  %48 = getelementptr inbounds nuw %struct._zend_refcounted, ptr %47, i32 0, i32 0
  %49 = call i32 @zend_gc_addref(ptr noundef %48)
  br label %50

50:                                               ; preds = %46, %42
  call void @llvm.lifetime.end.p0(i64 4, ptr %11) #18
  call void @llvm.lifetime.end.p0(i64 8, ptr %10) #18
  call void @llvm.lifetime.end.p0(i64 8, ptr %9) #18
  call void @llvm.lifetime.end.p0(i64 8, ptr %8) #18
  br label %51

51:                                               ; preds = %50
  br label %57

52:                                               ; preds = %4
  br label %53

53:                                               ; preds = %52
  %54 = getelementptr inbounds nuw %struct._zend_fiber_transfer, ptr %0, i32 0, i32 1
  %55 = getelementptr inbounds nuw %struct._zval_struct, ptr %54, i32 0, i32 1
  store i32 1, ptr %55, align 8, !tbaa !61
  br label %56

56:                                               ; preds = %53
  br label %57

57:                                               ; preds = %56, %51
  call void @zend_fiber_switch_context(ptr noundef %0)
  %58 = getelementptr inbounds nuw %struct._zend_fiber_transfer, ptr %0, i32 0, i32 2
  %59 = load i8, ptr %58, align 8, !tbaa !105
  %60 = zext i8 %59 to i32
  %61 = and i32 %60, 2
  %62 = icmp ne i32 %61, 0
  %63 = xor i1 %62, true
  %64 = xor i1 %63, true
  %65 = zext i1 %64 to i32
  %66 = sext i32 %65 to i64
  %67 = call i64 @llvm.expect.i64(i64 %66, i64 0)
  %68 = icmp ne i64 %67, 0
  br i1 %68, label %69, label %70

69:                                               ; preds = %57
  store ptr null, ptr getelementptr inbounds nuw (%struct._zend_executor_globals, ptr @executor_globals, i32 0, i32 74), align 8, !tbaa !87
  call void @_zend_bailout(ptr noundef @.str.25, i32 noundef 669) #24
  unreachable

70:                                               ; preds = %57
  ret void
}

; Function Attrs: alwaysinline nounwind uwtable
define internal void @zend_fiber_delegate_transfer_result(ptr noundef %0, ptr noundef %1, ptr noundef %2) #6 {
  %4 = alloca ptr, align 8
  %5 = alloca ptr, align 8
  %6 = alloca ptr, align 8
  %7 = alloca ptr, align 8
  %8 = alloca ptr, align 8
  %9 = alloca ptr, align 8
  %10 = alloca i32, align 4
  store ptr %0, ptr %4, align 8, !tbaa !67
  store ptr %1, ptr %5, align 8, !tbaa !127
  store ptr %2, ptr %6, align 8, !tbaa !94
  %11 = load ptr, ptr %4, align 8, !tbaa !67
  %12 = getelementptr inbounds nuw %struct._zend_fiber_transfer, ptr %11, i32 0, i32 2
  %13 = load i8, ptr %12, align 8, !tbaa !105
  %14 = zext i8 %13 to i32
  %15 = and i32 %14, 1
  %16 = icmp ne i32 %15, 0
  br i1 %16, label %17, label %26

17:                                               ; preds = %3
  %18 = load ptr, ptr %4, align 8, !tbaa !67
  %19 = getelementptr inbounds nuw %struct._zend_fiber_transfer, ptr %18, i32 0, i32 1
  %20 = getelementptr inbounds nuw %struct._zval_struct, ptr %19, i32 0, i32 0
  %21 = load ptr, ptr %20, align 8, !tbaa !61
  call void @zend_throw_exception_internal(ptr noundef %21)
  br label %22

22:                                               ; preds = %17
  %23 = load ptr, ptr getelementptr inbounds nuw (%struct._zend_executor_globals, ptr @executor_globals, i32 0, i32 54), align 8, !tbaa !118
  %24 = icmp ne ptr %23, null
  call void @llvm.assume(i1 %24)
  br label %55

25:                                               ; No predecessors!
  br label %26

26:                                               ; preds = %25, %3
  %27 = load ptr, ptr %6, align 8, !tbaa !94
  %28 = icmp ne ptr %27, null
  br i1 %28, label %29, label %52

29:                                               ; preds = %26
  br label %30

30:                                               ; preds = %29
  br label %31

31:                                               ; preds = %30
  call void @llvm.lifetime.start.p0(i64 8, ptr %7) #18
  %32 = load ptr, ptr %6, align 8, !tbaa !94
  store ptr %32, ptr %7, align 8, !tbaa !94
  call void @llvm.lifetime.start.p0(i64 8, ptr %8) #18
  %33 = load ptr, ptr %4, align 8, !tbaa !67
  %34 = getelementptr inbounds nuw %struct._zend_fiber_transfer, ptr %33, i32 0, i32 1
  store ptr %34, ptr %8, align 8, !tbaa !94
  call void @llvm.lifetime.start.p0(i64 8, ptr %9) #18
  %35 = load ptr, ptr %8, align 8, !tbaa !94
  %36 = getelementptr inbounds nuw %struct._zval_struct, ptr %35, i32 0, i32 0
  %37 = load ptr, ptr %36, align 8, !tbaa !61
  store ptr %37, ptr %9, align 8, !tbaa !128
  call void @llvm.lifetime.start.p0(i64 4, ptr %10) #18
  %38 = load ptr, ptr %8, align 8, !tbaa !94
  %39 = getelementptr inbounds nuw %struct._zval_struct, ptr %38, i32 0, i32 1
  %40 = load i32, ptr %39, align 8, !tbaa !61
  store i32 %40, ptr %10, align 4, !tbaa !48
  br label %41

41:                                               ; preds = %31
  %42 = load ptr, ptr %9, align 8, !tbaa !128
  %43 = load ptr, ptr %7, align 8, !tbaa !94
  %44 = getelementptr inbounds nuw %struct._zval_struct, ptr %43, i32 0, i32 0
  store ptr %42, ptr %44, align 8, !tbaa !61
  %45 = load i32, ptr %10, align 4, !tbaa !48
  %46 = load ptr, ptr %7, align 8, !tbaa !94
  %47 = getelementptr inbounds nuw %struct._zval_struct, ptr %46, i32 0, i32 1
  store i32 %45, ptr %47, align 8, !tbaa !61
  br label %48

48:                                               ; preds = %41
  br label %49

49:                                               ; preds = %48
  call void @llvm.lifetime.end.p0(i64 4, ptr %10) #18
  call void @llvm.lifetime.end.p0(i64 8, ptr %9) #18
  call void @llvm.lifetime.end.p0(i64 8, ptr %8) #18
  call void @llvm.lifetime.end.p0(i64 8, ptr %7) #18
  br label %50

50:                                               ; preds = %49
  br label %55

51:                                               ; No predecessors!
  br label %55

52:                                               ; preds = %26
  %53 = load ptr, ptr %4, align 8, !tbaa !67
  %54 = getelementptr inbounds nuw %struct._zend_fiber_transfer, ptr %53, i32 0, i32 1
  call void @zval_ptr_dtor(ptr noundef %54)
  br label %55

55:                                               ; preds = %22, %50, %52, %51
  ret void
}

; Function Attrs: alwaysinline nounwind uwtable
define internal void @zend_fiber_resume_internal(ptr dead_on_unwind noalias writable sret(%struct._zend_fiber_transfer) align 8 %0, ptr noundef %1, ptr noundef %2, i1 noundef zeroext %3) #6 {
  %5 = alloca ptr, align 8
  %6 = alloca ptr, align 8
  %7 = alloca i8, align 1
  %8 = alloca ptr, align 8
  store ptr %1, ptr %5, align 8, !tbaa !93
  store ptr %2, ptr %6, align 8, !tbaa !94
  %9 = zext i1 %3 to i8
  store i8 %9, ptr %7, align 1, !tbaa !124
  call void @llvm.lifetime.start.p0(i64 8, ptr %8) #18
  %10 = load ptr, ptr getelementptr inbounds nuw (%struct._zend_executor_globals, ptr @executor_globals, i32 0, i32 74), align 8, !tbaa !87
  store ptr %10, ptr %8, align 8, !tbaa !93
  %11 = load ptr, ptr %8, align 8, !tbaa !93
  %12 = icmp ne ptr %11, null
  br i1 %12, label %13, label %17

13:                                               ; preds = %4
  %14 = load ptr, ptr getelementptr inbounds nuw (%struct._zend_executor_globals, ptr @executor_globals, i32 0, i32 19), align 8, !tbaa !79
  %15 = load ptr, ptr %8, align 8, !tbaa !93
  %16 = getelementptr inbounds nuw %struct._zend_fiber, ptr %15, i32 0, i32 7
  store ptr %14, ptr %16, align 8, !tbaa !111
  br label %17

17:                                               ; preds = %13, %4
  %18 = load ptr, ptr getelementptr inbounds nuw (%struct._zend_executor_globals, ptr @executor_globals, i32 0, i32 73), align 8, !tbaa !65
  %19 = load ptr, ptr %5, align 8, !tbaa !93
  %20 = getelementptr inbounds nuw %struct._zend_fiber, ptr %19, i32 0, i32 3
  store ptr %18, ptr %20, align 8, !tbaa !123
  %21 = load ptr, ptr %5, align 8, !tbaa !93
  store ptr %21, ptr getelementptr inbounds nuw (%struct._zend_executor_globals, ptr @executor_globals, i32 0, i32 74), align 8, !tbaa !87
  %22 = load ptr, ptr %5, align 8, !tbaa !93
  %23 = getelementptr inbounds nuw %struct._zend_fiber, ptr %22, i32 0, i32 4
  %24 = load ptr, ptr %23, align 8, !tbaa !104
  %25 = load ptr, ptr %6, align 8, !tbaa !94
  %26 = load i8, ptr %7, align 1, !tbaa !124, !range !125, !noundef !126
  %27 = trunc i8 %26 to i1
  call void @zend_fiber_switch_to(ptr dead_on_unwind writable sret(%struct._zend_fiber_transfer) align 8 %0, ptr noundef %24, ptr noundef %25, i1 noundef zeroext %27)
  %28 = load ptr, ptr %8, align 8, !tbaa !93
  store ptr %28, ptr getelementptr inbounds nuw (%struct._zend_executor_globals, ptr @executor_globals, i32 0, i32 74), align 8, !tbaa !87
  call void @llvm.lifetime.end.p0(i64 8, ptr %8) #18
  ret void
}

; Function Attrs: nounwind uwtable
define dso_local void @zend_fiber_resume(ptr noundef %0, ptr noundef %1, ptr noundef %2) #0 {
  %4 = alloca ptr, align 8
  %5 = alloca ptr, align 8
  %6 = alloca ptr, align 8
  %7 = alloca %struct._zend_fiber_transfer, align 8
  store ptr %0, ptr %4, align 8, !tbaa !93
  store ptr %1, ptr %5, align 8, !tbaa !94
  store ptr %2, ptr %6, align 8, !tbaa !94
  %8 = load ptr, ptr %4, align 8, !tbaa !93
  %9 = getelementptr inbounds nuw %struct._zend_fiber, ptr %8, i32 0, i32 2
  %10 = getelementptr inbounds nuw %struct._zend_fiber_context, ptr %9, i32 0, i32 5
  %11 = load i32, ptr %10, align 8, !tbaa !95
  %12 = icmp eq i32 %11, 2
  br i1 %12, label %13, label %18

13:                                               ; preds = %3
  %14 = load ptr, ptr %4, align 8, !tbaa !93
  %15 = getelementptr inbounds nuw %struct._zend_fiber, ptr %14, i32 0, i32 3
  %16 = load ptr, ptr %15, align 8, !tbaa !123
  %17 = icmp eq ptr %16, null
  br label %18

18:                                               ; preds = %13, %3
  %19 = phi i1 [ false, %3 ], [ %17, %13 ]
  call void @llvm.assume(i1 %19)
  %20 = load ptr, ptr getelementptr inbounds nuw (%struct._zend_executor_globals, ptr @executor_globals, i32 0, i32 19), align 8, !tbaa !79
  %21 = load ptr, ptr %4, align 8, !tbaa !93
  %22 = getelementptr inbounds nuw %struct._zend_fiber, ptr %21, i32 0, i32 8
  %23 = load ptr, ptr %22, align 8, !tbaa !112
  %24 = getelementptr inbounds nuw %struct._zend_execute_data, ptr %23, i32 0, i32 5
  store ptr %20, ptr %24, align 8, !tbaa !115
  call void @llvm.lifetime.start.p0(i64 32, ptr %7) #18
  %25 = load ptr, ptr %4, align 8, !tbaa !93
  %26 = load ptr, ptr %5, align 8, !tbaa !94
  call void @zend_fiber_resume_internal(ptr dead_on_unwind writable sret(%struct._zend_fiber_transfer) align 8 %7, ptr noundef %25, ptr noundef %26, i1 noundef zeroext false)
  %27 = load ptr, ptr getelementptr inbounds nuw (%struct._zend_executor_globals, ptr @executor_globals, i32 0, i32 19), align 8, !tbaa !79
  %28 = load ptr, ptr %6, align 8, !tbaa !94
  call void @zend_fiber_delegate_transfer_result(ptr noundef %7, ptr noundef %27, ptr noundef %28)
  call void @llvm.lifetime.end.p0(i64 32, ptr %7) #18
  ret void
}