; Function Attrs: nounwind uwtable
define dso_local void @zend_fiber_resume(ptr noundef %0, ptr noundef readonly captures(address_is_null) %1, ptr noundef writeonly captures(address_is_null) %2) local_unnamed_addr #7 {
  %4 = alloca %struct._zend_fiber_transfer, align 8
  %5 = getelementptr inbounds nuw i8, ptr %0, i64 104
  %6 = load i32, ptr %5, align 8, !tbaa !74
  %7 = icmp eq i32 %6, 2
  tail call void @llvm.assume(i1 %7)
  %8 = getelementptr inbounds nuw i8, ptr %0, i64 168
  %9 = load ptr, ptr %8, align 8, !tbaa !88
  %10 = icmp eq ptr %9, null
  tail call void @llvm.assume(i1 %10)
  %11 = load ptr, ptr getelementptr inbounds nuw (i8, ptr @executor_globals, i64 512), align 8, !tbaa !66
  %12 = getelementptr inbounds nuw i8, ptr %0, i64 296
  %13 = load ptr, ptr %12, align 8, !tbaa !98
  %14 = getelementptr inbounds nuw i8, ptr %13, i64 48
  store ptr %11, ptr %14, align 8, !tbaa !101
  call void @llvm.lifetime.start.p0(i64 32, ptr nonnull %4) #22
  %15 = load ptr, ptr getelementptr inbounds nuw (i8, ptr @executor_globals, i64 1776), align 8, !tbaa !70, !noalias !108
  %.not.i = icmp eq ptr %15, null
  br i1 %.not.i, label %zend_fiber_resume_internal.exit, label %16

16:                                               ; preds = %3
  %17 = getelementptr inbounds nuw i8, ptr %15, i64 288
  store ptr %11, ptr %17, align 8, !tbaa !87, !noalias !108
  br label %zend_fiber_resume_internal.exit

zend_fiber_resume_internal.exit:                  ; preds = %3, %16
  %18 = load ptr, ptr getelementptr inbounds nuw (i8, ptr @executor_globals, i64 1768), align 8, !tbaa !60, !noalias !108
  store ptr %18, ptr %8, align 8, !tbaa !88, !noalias !108
  store ptr %0, ptr getelementptr inbounds nuw (i8, ptr @executor_globals, i64 1776), align 8, !tbaa !70, !noalias !108
  %19 = getelementptr inbounds nuw i8, ptr %0, i64 176
  %20 = load ptr, ptr %19, align 8, !tbaa !83, !noalias !108
  tail call void @llvm.experimental.noalias.scope.decl(metadata !111)
  store ptr %20, ptr %4, align 8, !tbaa !57, !alias.scope !111
  %21 = getelementptr inbounds nuw i8, ptr %4, i64 8
  %22 = getelementptr inbounds nuw i8, ptr %4, i64 24
  %.not.i7 = icmp eq ptr %1, null
  call void @llvm.memset.p0.i64(ptr noundef nonnull align 8 dereferenceable(24) %21, i8 0, i64 24, i1 false)
  br i1 %.not.i7, label %32, label %23

23:                                               ; preds = %zend_fiber_resume_internal.exit
  %24 = load ptr, ptr %1, align 8, !tbaa !56, !noalias !111
  %25 = getelementptr inbounds nuw i8, ptr %1, i64 8
  %26 = load i32, ptr %25, align 8, !tbaa !56, !noalias !111
  store ptr %24, ptr %21, align 8, !tbaa !56, !alias.scope !111
  %27 = getelementptr inbounds nuw i8, ptr %4, i64 16
  store i32 %26, ptr %27, align 8, !tbaa !56, !alias.scope !111
  %28 = and i32 %26, 65280
  %.not11.i8 = icmp eq i32 %28, 0
  br i1 %.not11.i8, label %34, label %29

29:                                               ; preds = %23
  %30 = load i32, ptr %24, align 4, !tbaa !105, !noalias !111
  %31 = add i32 %30, 1
  store i32 %31, ptr %24, align 4, !tbaa !105, !noalias !111
  br label %34

32:                                               ; preds = %zend_fiber_resume_internal.exit
  %33 = getelementptr inbounds nuw i8, ptr %4, i64 16
  store i32 1, ptr %33, align 8, !tbaa !56, !alias.scope !111
  br label %34

34:                                               ; preds = %32, %29, %23
  call void @zend_fiber_switch_context(ptr noundef nonnull align 8 %4)
  %35 = load i8, ptr %22, align 8, !tbaa !92, !alias.scope !111
  %36 = and i8 %35, 2
  %.not12.i = icmp eq i8 %36, 0
  br i1 %.not12.i, label %zend_fiber_switch_to.exit, label %37, !prof !73

37:                                               ; preds = %34
  store ptr null, ptr getelementptr inbounds nuw (i8, ptr @executor_globals, i64 1776), align 8, !tbaa !70, !noalias !111
  call void @_zend_bailout(ptr noundef nonnull @.str.25, i32 noundef 669) #24
  unreachable

zend_fiber_switch_to.exit:                        ; preds = %34
  store ptr %15, ptr getelementptr inbounds nuw (i8, ptr @executor_globals, i64 1776), align 8, !tbaa !70, !noalias !108
  %38 = and i8 %35, 1
  %.not.i6 = icmp eq i8 %38, 0
  br i1 %.not.i6, label %43, label %39

39:                                               ; preds = %zend_fiber_switch_to.exit
  %40 = load ptr, ptr %21, align 8, !tbaa !56
  call void @zend_throw_exception_internal(ptr noundef %40) #22
  %41 = load ptr, ptr getelementptr inbounds nuw (i8, ptr @executor_globals, i64 960), align 8, !tbaa !93
  %42 = icmp ne ptr %41, null
  call void @llvm.assume(i1 %42)
  br label %zend_fiber_delegate_transfer_result.exit

43:                                               ; preds = %zend_fiber_switch_to.exit
  %.not11.i = icmp eq ptr %2, null
  br i1 %.not11.i, label %49, label %44

44:                                               ; preds = %43
  %45 = load ptr, ptr %21, align 8, !tbaa !56
  %46 = getelementptr inbounds nuw i8, ptr %4, i64 16
  %47 = load i32, ptr %46, align 8, !tbaa !56
  store ptr %45, ptr %2, align 8, !tbaa !56
  %48 = getelementptr inbounds nuw i8, ptr %2, i64 8
  store i32 %47, ptr %48, align 8, !tbaa !56
  br label %zend_fiber_delegate_transfer_result.exit

49:                                               ; preds = %43
  call void @zval_ptr_dtor(ptr noundef nonnull %21) #22
  br label %zend_fiber_delegate_transfer_result.exit

zend_fiber_delegate_transfer_result.exit:         ; preds = %39, %44, %49
  call void @llvm.lifetime.end.p0(i64 32, ptr nonnull %4) #22
  ret void
}